Certificate:
    Data:
        Version: 3 (0x2)
        Serial Number: 4097 (0x1001)
        Signature Algorithm: sha256WithRSAEncryption
        Issuer: C=US, ST=MA, L=Boston, O=Red Hat, OU=Keycloak, CN=Keycloak CA/emailAddress=contact@keycloak.org
        Validity
            Not Before: Jun 15 13:53:53 2019 GMT
            Not After : Oct 31 13:53:53 2046 GMT
        Subject: C=US, ST=MA, O=Red Hat, OU=Keycloak, CN=test-user/emailAddress=test-user@localhost
        Subject Public Key Info:
            Public Key Algorithm: rsaEncryption
                RSA Public-Key: (4096 bit)
                Modulus:
                    00:c3:16:4d:f5:e3:dd:3a:f9:48:c7:5c:5b:b7:16:
                    17:a2:ff:fd:3e:8a:85:b6:e7:3d:82:4f:63:1a:e4:
                    2b:a6:37:88:57:aa:d5:c3:d4:8a:7d:1a:4f:75:37:
                    0f:47:24:4b:80:b4:ee:db:41:bc:aa:31:cf:5a:76:
                    a5:52:97:59:7f:d8:35:15:38:04:ba:a5:aa:c8:df:
                    b0:7f:ff:a5:db:16:a2:f2:d1:4b:b2:37:11:30:7b:
                    19:01:b1:6b:33:d8:94:f1:2b:52:94:b7:52:9f:e7:
                    f9:e0:e5:62:ef:df:0f:b6:63:20:1f:a7:cb:72:62:
                    b4:bf:13:f7:53:1e:ac:c7:11:7a:33:cc:ea:ff:45:
                    32:89:83:75:7e:44:fa:a5:0f:75:03:70:bc:24:cf:
                    74:d3:16:fa:49:3f:f3:04:87:2e:ff:f7:b6:72:a7:
                    ef:bc:ba:ec:b9:f9:58:75:95:5d:a4:d2:65:6a:c1:
                    9c:06:3c:7b:fe:a2:70:92:9b:d9:26:65:d7:61:fd:
                    de:36:ef:9d:30:aa:aa:ca:a6:56:15:d7:bc:af:07:
                    cb:fc:17:aa:35:5a:50:73:77:81:a2:30:a7:21:5e:
                    1c:21:f8:66:e1:eb:6f:88:5b:2e:7d:a4:40:11:78:
                    43:70:47:61:dc:fa:24:6c:d9:24:75:5d:c2:65:12:
                    a2:42:e9:16:ac:9a:dd:af:b8:4c:3b:b1:59:7b:be:
                    c4:f0:d6:f0:26:d0:1a:b9:47:27:6b:a1:ab:bf:02:
                    72:e9:8a:66:16:95:51:39:1a:9e:3b:12:96:f8:0f:
                    a6:fc:90:87:08:be:4c:4e:32:9e:10:38:78:de:05:
                    4f:d0:bc:5f:29:d9:d4:88:79:b2:14:42:f9:dc:65:
                    33:77:7a:20:93:ed:79:9f:ca:60:a5:eb:5b:a8:18:
                    32:b0:a1:57:00:9d:c8:5c:29:60:1e:92:da:b7:69:
                    c1:a8:56:6c:48:16:61:cc:3f:68:83:ca:6e:3b:8b:
                    fd:8a:81:9e:d5:00:71:69:79:e0:37:96:a3:1a:5c:
                    35:e7:f9:20:5e:be:eb:72:80:42:93:97:3d:0c:11:
                    6e:29:89:af:eb:c3:89:62:10:1f:01:82:5b:6f:79:
                    6a:f0:66:f6:60:64:4c:04:e1:9e:a3:59:b4:8e:95:
                    23:95:3b:44:6f:ff:19:71:41:94:ea:e8:3b:d2:ad:
                    70:21:ad:c7:3c:f1:cf:53:1f:e7:3b:b7:78:b8:ee:
                    90:a9:4c:26:4e:b4:d3:17:db:c3:07:2e:06:07:50:
                    41:34:84:77:35:37:60:bd:58:6a:a0:f6:a8:a3:65:
                    d5:04:f2:ee:16:ee:77:c3:dd:9a:a7:d5:47:cf:47:
                    e4:d0:95
                Exponent: 65537 (0x10001)
        X509v3 extensions:
            X509v3 Basic Constraints: 
                CA:FALSE
            Netscape Cert Type: 
                SSL Client, S/MIME
            Netscape Comment: 
                OpenSSL Generated Client Certificate
            X509v3 Subject Key Identifier: 
                D6:DE:A6:F7:6B:2B:52:AF:AC:B2:1D:15:B7:F1:42:5E:EA:D3:51:C2
            X509v3 Key Usage: critical
                Digital Signature, Non Repudiation, Key Encipherment
            X509v3 Extended Key Usage: 
                TLS Web Client Authentication, E-mail Protection
    Signature Algorithm: sha256WithRSAEncryption
         68:b1:a3:68:51:22:09:10:91:cf:40:a9:ed:c4:27:96:1e:bb:
         33:3d:e8:e2:84:e2:d6:07:16:07:32:75:4f:53:51:f7:c5:67:
         1d:9c:c4:0c:ba:82:74:a4:fc:d0:3f:15:d9:3f:38:61:81:6f:
         32:06:66:15:43:56:29:f5:73:18:89:e0:f4:72:d7:db:f1:9f:
         8e:f9:fe:ee:7f:f7:d1:70:2d:fb:89:3a:d1:fa:e0:2a:2e:c6:
         e9:5c:e9:05:b3:78:77:d1:1c:43:24:c7:44:bb:0a:f6:b3:bf:
         33:36:59:99:2d:bd:dc:52:a9:08:5f:2d:88:c6:d0:ab:13:19:
         3e:38:1b:3d:86:60:b4:9e:6b:64:a6:10:c6:80:ee:39:b5:38:
         44:12:28:8c:7d:e1:e9:5c:37:d2:a4:d7:d4:8f:13:cf:bf:24:
         7b:fe:be:7f:50:a6:0e:b2:61:da:80:c0:ea:94:db:bd:9f:69:
         12:36:00:17:b0:aa:92:25:ea:e1:a8:0d:40:85:a0:fe:ea:1d:
         14:60:2a:ce:62:67:5d:96:c8:73:a5:58:a5:2c:67:32:db:c3:
         0c:2f:0a:35:b9:cf:9e:d3:26:26:85:4d:39:57:cc:ff:54:19:
         a1:7c:cd:8e:ef:7a:f8:42:65:5d:da:7a:94:6c:6d:3a:8c:04:
         82:3a:bf:8d:f0:3c:79:5c:8a:b4:51:a3:24:84:30:df:b5:92:
         73:25:e3:d4:20:b2:ae:12:f4:dd:4c:b0:13:b6:c6:61:7d:95:
         f4:68:c4:d3:bc:78:08:bf:33:e2:ef:12:aa:4c:ea:c3:9c:96:
         19:2d:71:0c:40:fa:23:ac:a6:f2:c3:ff:d0:ca:d7:ae:df:8d:
         0a:07:55:20:64:76:7c:96:a4:6f:74:07:a3:2d:58:b8:e3:cf:
         98:e8:88:74:64:80:b7:65:18:02:6d:81:99:48:b0:31:68:e1:
         da:e0:66:0a:bc:72:d1:c2:90:54:d3:0b:64:79:f8:5f:1d:36:
         a4:6c:65:88:61:b2:e1:9e:7f:f8:45:d5:86:e0:b6:be:aa:15:
         e7:17:bf:00:17:69:3d:ae:aa:e1:6f:c5:01:a7:11:94:80:d5:
         1c:c4:c8:f8:35:ea:d8:56:e2:98:9f:96:6d:10:e5:c1:23:a5:
         04:18:66:21:b5:53:d5:7f:93:f6:bd:37:69:92:9b:a6:13:56:
         99:b9:c5:d9:37:e7:24:1a:d9:05:93:e9:b9:d1:46:54:21:cc:
         25:4b:d9:f1:b0:5a:e5:33:1d:ef:eb:05:90:53:76:02:3d:cf:
         a0:b7:7f:be:22:25:66:fb:63:f3:10:20:9a:dc:9f:61:a4:34:
         5e:26:ee:0f:13:de:d1:b4
-----BEGIN CERTIFICATE-----
MIIGJDCCBAygAwIBAgICEAEwDQYJKoZIhvcNAQELBQAwgYsxCzAJBgNVBAYTAlVT
MQswCQYDVQQIDAJNQTEPMA0GA1UEBwwGQm9zdG9uMRAwDgYDVQQKDAdSZWQgSGF0
MREwDwYDVQQLDAhLZXljbG9hazEUMBIGA1UEAwwLS2V5Y2xvYWsgQ0ExIzAhBgkq
hkiG9w0BCQEWFGNvbnRhY3RAa2V5Y2xvYWsub3JnMB4XDTE5MDYxNTEzNTM1M1oX
DTQ2MTAzMTEzNTM1M1owdzELMAkGA1UEBhMCVVMxCzAJBgNVBAgMAk1BMRAwDgYD
VQQKDAdSZWQgSGF0MREwDwYDVQQLDAhLZXljbG9hazESMBAGA1UEAwwJdGVzdC11
c2VyMSIwIAYJKoZIhvcNAQkBFhN0ZXN0LXVzZXJAbG9jYWxob3N0MIICIjANBgkq
hkiG9w0BAQEFAAOCAg8AMIICCgKCAgEAwxZN9ePdOvlIx1xbtxYXov/9PoqFtuc9
gk9jGuQrpjeIV6rVw9SKfRpPdTcPRyRLgLTu20G8qjHPWnalUpdZf9g1FTgEuqWq
yN+wf/+l2xai8tFLsjcRMHsZAbFrM9iU8StSlLdSn+f54OVi798PtmMgH6fLcmK0
vxP3Ux6sxxF6M8zq/0UyiYN1fkT6pQ91A3C8JM900xb6ST/zBIcu//e2cqfvvLrs
uflYdZVdpNJlasGcBjx7/qJwkpvZJmXXYf3eNu+dMKqqyqZWFde8rwfL/BeqNVpQ
c3eBojCnIV4cIfhm4etviFsufaRAEXhDcEdh3PokbNkkdV3CZRKiQukWrJrdr7hM
O7FZe77E8NbwJtAauUcna6GrvwJy6YpmFpVRORqeOxKW+A+m/JCHCL5MTjKeEDh4
3gVP0LxfKdnUiHmyFEL53GUzd3ogk+15n8pgpetbqBgysKFXAJ3IXClgHpLat2nB
qFZsSBZhzD9og8puO4v9ioGe1QBxaXngN5ajGlw15/kgXr7rcoBCk5c9DBFuKYmv
68OJYhAfAYJbb3lq8Gb2YGRMBOGeo1m0jpUjlTtEb/8ZcUGU6ug70q1wIa3HPPHP
Ux/nO7d4uO6QqUwmTrTTF9vDBy4GB1BBNIR3NTdgvVhqoPaoo2XVBPLuFu53w92a
p9VHz0fk0JUCAwEAAaOBpDCBoTAJBgNVHRMEAjAAMBEGCWCGSAGG+EIBAQQEAwIF
oDAzBglghkgBhvhCAQ0EJhYkT3BlblNTTCBHZW5lcmF0ZWQgQ2xpZW50IENlcnRp
ZmljYXRlMB0GA1UdDgQWBBTW3qb3aytSr6yyHRW38UJe6tNRwjAOBgNVHQ8BAf8E
BAMCBeAwHQYDVR0lBBYwFAYIKwYBBQUHAwIGCCsGAQUFBwMEMA0GCSqGSIb3DQEB
CwUAA4ICAQBosaNoUSIJEJHPQKntxCeWHrszPejihOLWBxYHMnVPU1H3xWcdnMQM
uoJ0pPzQPxXZPzhhgW8yBmYVQ1Yp9XMYieD0ctfb8Z+O+f7uf/fRcC37iTrR+uAq
LsbpXOkFs3h30RxDJMdEuwr2s78zNlmZLb3cUqkIXy2IxtCrExk+OBs9hmC0nmtk
phDGgO45tThEEiiMfeHpXDfSpNfUjxPPvyR7/r5/UKYOsmHagMDqlNu9n2kSNgAX
sKqSJerhqA1AhaD+6h0UYCrOYmddlshzpVilLGcy28MMLwo1uc+e0yYmhU05V8z/
VBmhfM2O73r4QmVd2nqUbG06jASCOr+N8Dx5XIq0UaMkhDDftZJzJePUILKuEvTd
TLATtsZhfZX0aMTTvHgIvzPi7xKqTOrDnJYZLXEMQPojrKbyw//Qyteu340KB1Ug
ZHZ8lqRvdAejLVi448+Y6Ih0ZIC3ZRgCbYGZSLAxaOHa4GYKvHLRwpBU0wtkefhf
HTakbGWIYbLhnn/4RdWG4La+qhXnF78AF2k9rqrhb8UBpxGUgNUcxMj4NerYVuKY
n5ZtEOXBI6UEGGYhtVPVf5P2vTdpkpumE1aZucXZN+ckGtkFk+m50UZUIcwlS9nx
sFrlMx3v6wWQU3YCPc+gt3++IiVm+2PzECCa3J9hpDReJu4PE97RtA==
-----END CERTIFICATE-----
